target datalayout = "e-m:e-p270:32:32-p271:32:32-p272:64:64-i64:64-i128:128-f80:128-n8:16:32:64-S128"
target triple = "x86_64-pc-linux-gnu"

%struct.H5HF_hdr_t = type { %struct.H5C_cache_entry_t, i32, i32, i8, i8, i8, i8, %struct.H5HF_dtable_t, i64, i64, i32, i64, i64, %struct.H5O_pline_t, i64, i32, i64, i64, i64, i64, i64, i64, i64, i64, i64, i64, i64, i32, ptr, i64, i8, i8, i8, ptr, i32, ptr, %struct.H5HF_block_iter_t, ptr, i64, i8, i8, i64, i8, i8, i8, i8 }
%struct.H5C_cache_entry_t = type { ptr, i64, i64, ptr, i8, ptr, i8, i8, i8, i8, i32, i8, i8, i8, i8, i8, i32, ptr, i32, i32, i32, i32, i32, i8, i8, ptr, ptr, ptr, ptr, ptr, ptr, i8, i32, i8, i64, ptr, i64, i64, i32, i8, i32, i32, i8, ptr, ptr, ptr }
%struct.H5HF_dtable_t = type { %struct.H5HF_dtable_cparam_t, i64, i32, i32, i32, i32, i32, i32, i32, i64, ptr, ptr, ptr, ptr }
%struct.H5HF_dtable_cparam_t = type { i32, i64, i64, i32, i32 }
%struct.H5O_pline_t = type { %struct.H5O_shared_t, i32, i64, i64, ptr }
%struct.H5O_shared_t = type { i32, ptr, i32, %union.anon.3 }
%union.anon.3 = type { %struct.H5O_mesg_loc_t }
%struct.H5O_mesg_loc_t = type { i32, i64 }
%struct.H5HF_block_iter_t = type { i8, ptr }
%struct.H5HF_indirect_t = type { %struct.H5C_cache_entry_t, i64, ptr, ptr, ptr, i32, i64, i64, i32, i32, i32, i32, ptr, i8, i64, ptr, ptr }

@H5HF_init_g = external global i8, align 1
@H5_libterm_g = external global i8, align 1
@.str = private unnamed_addr constant [105 x i8] c"generated/home/dtcxzyw/WorkSpace/Projects/compilers/llvm-opt-benchmark/bench/hdf5/hdf5/src/H5HFsection.c\00", align 1
@H5E_HEAP_g = external global i64, align 8
@H5E_CANTRELEASE_g = external global i64, align 8
@H5E_CANTINIT_g = external global i64, align 8
@__func__.H5HF__sect_indirect_add = private unnamed_addr constant [24 x i8] c"H5HF__sect_indirect_add\00", align 1
@.str.12 = private unnamed_addr constant [30 x i8] c"can't create indirect section\00", align 1
@.str.13 = private unnamed_addr constant [34 x i8] c"can't initialize indirect section\00", align 1
@.str.14 = private unnamed_addr constant [36 x i8] c"can't add row section to free space\00", align 1
@.str.15 = private unnamed_addr constant [33 x i8] c"can't free indirect section node\00", align 1

; Function Attrs: nounwind uwtable
define i32 @H5HF__sect_indirect_add(ptr noundef %0, ptr noundef %1, i32 noundef %2, i32 noundef %3) #0 {
  %5 = alloca ptr, align 8
  %6 = alloca ptr, align 8
  %7 = alloca i32, align 4
  %8 = alloca i32, align 4
  %9 = alloca ptr, align 8
  %10 = alloca ptr, align 8
  %11 = alloca i64, align 8
  %12 = alloca i32, align 4
  %13 = alloca i32, align 4
  %14 = alloca i32, align 4
  %15 = alloca i32, align 4
  %16 = alloca i32, align 4
  %17 = alloca i32, align 4
  %18 = alloca i32, align 4
  %19 = alloca i8, align 1
  store ptr %0, ptr %5, align 8, !tbaa !22
  store ptr %1, ptr %6, align 8, !tbaa !66
  store i32 %2, ptr %7, align 4, !tbaa !11
  store i32 %3, ptr %8, align 4, !tbaa !11
  call void @llvm.lifetime.start.p0(i64 8, ptr %9) #7
  store ptr null, ptr %9, align 8, !tbaa !23
  call void @llvm.lifetime.start.p0(i64 8, ptr %10) #7
  store ptr null, ptr %10, align 8, !tbaa !23
  call void @llvm.lifetime.start.p0(i64 8, ptr %11) #7
  call void @llvm.lifetime.start.p0(i64 4, ptr %12) #7
  call void @llvm.lifetime.start.p0(i64 4, ptr %13) #7
  call void @llvm.lifetime.start.p0(i64 4, ptr %14) #7
  call void @llvm.lifetime.start.p0(i64 4, ptr %15) #7
  call void @llvm.lifetime.start.p0(i64 4, ptr %16) #7
  call void @llvm.lifetime.start.p0(i64 4, ptr %17) #7
  call void @llvm.lifetime.start.p0(i64 4, ptr %18) #7
  store i32 0, ptr %18, align 4, !tbaa !11
  call void @llvm.lifetime.start.p0(i64 1, ptr %19) #7
  store i8 0, ptr %19, align 1, !tbaa !13
  %20 = load i8, ptr @H5HF_init_g, align 1, !tbaa !13, !range !15, !noundef !16
  %21 = trunc i8 %20 to i1
  br i1 %21, label %26, label %22

22:                                               ; preds = %4
  %23 = load i8, ptr @H5_libterm_g, align 1, !tbaa !13, !range !15, !noundef !16
  %24 = trunc i8 %23 to i1
  %25 = xor i1 %24, true
  br label %26

26:                                               ; preds = %22, %4
  %27 = phi i1 [ true, %4 ], [ %25, %22 ]
  %28 = xor i1 %27, true
  %29 = xor i1 %28, true
  %30 = zext i1 %29 to i32
  %31 = sext i32 %30 to i64
  %32 = call i64 @llvm.expect.i64(i64 %31, i64 1)
  %33 = icmp ne i64 %32, 0
  br i1 %33, label %34, label %220

34:                                               ; preds = %26
  %35 = load i32, ptr %7, align 4, !tbaa !11
  %36 = load ptr, ptr %5, align 8, !tbaa !22
  %37 = getelementptr inbounds nuw %struct.H5HF_hdr_t, ptr %36, i32 0, i32 7
  %38 = getelementptr inbounds nuw %struct.H5HF_dtable_t, ptr %37, i32 0, i32 0
  %39 = getelementptr inbounds nuw %struct.H5HF_dtable_cparam_t, ptr %38, i32 0, i32 0
  %40 = load i32, ptr %39, align 8, !tbaa !86
  %41 = udiv i32 %35, %40
  store i32 %41, ptr %12, align 4, !tbaa !11
  %42 = load i32, ptr %7, align 4, !tbaa !11
  %43 = load ptr, ptr %5, align 8, !tbaa !22
  %44 = getelementptr inbounds nuw %struct.H5HF_hdr_t, ptr %43, i32 0, i32 7
  %45 = getelementptr inbounds nuw %struct.H5HF_dtable_t, ptr %44, i32 0, i32 0
  %46 = getelementptr inbounds nuw %struct.H5HF_dtable_cparam_t, ptr %45, i32 0, i32 0
  %47 = load i32, ptr %46, align 8, !tbaa !86
  %48 = urem i32 %42, %47
  store i32 %48, ptr %13, align 4, !tbaa !11
  %49 = load i32, ptr %7, align 4, !tbaa !11
  %50 = load i32, ptr %8, align 4, !tbaa !11
  %51 = add i32 %49, %50
  %52 = sub i32 %51, 1
  store i32 %52, ptr %14, align 4, !tbaa !11
  %53 = load i32, ptr %14, align 4, !tbaa !11
  %54 = load ptr, ptr %5, align 8, !tbaa !22
  %55 = getelementptr inbounds nuw %struct.H5HF_hdr_t, ptr %54, i32 0, i32 7
  %56 = getelementptr inbounds nuw %struct.H5HF_dtable_t, ptr %55, i32 0, i32 0
  %57 = getelementptr inbounds nuw %struct.H5HF_dtable_cparam_t, ptr %56, i32 0, i32 0
  %58 = load i32, ptr %57, align 8, !tbaa !86
  %59 = udiv i32 %53, %58
  store i32 %59, ptr %15, align 4, !tbaa !11
  %60 = load i32, ptr %14, align 4, !tbaa !11
  %61 = load ptr, ptr %5, align 8, !tbaa !22
  %62 = getelementptr inbounds nuw %struct.H5HF_hdr_t, ptr %61, i32 0, i32 7
  %63 = getelementptr inbounds nuw %struct.H5HF_dtable_t, ptr %62, i32 0, i32 0
  %64 = getelementptr inbounds nuw %struct.H5HF_dtable_cparam_t, ptr %63, i32 0, i32 0
  %65 = load i32, ptr %64, align 8, !tbaa !86
  %66 = urem i32 %60, %65
  store i32 %66, ptr %16, align 4, !tbaa !11
  %67 = load ptr, ptr %6, align 8, !tbaa !66
  %68 = getelementptr inbounds nuw %struct.H5HF_indirect_t, ptr %67, i32 0, i32 14
  %69 = load i64, ptr %68, align 8, !tbaa !88
  store i64 %69, ptr %11, align 8, !tbaa !25
  store i32 0, ptr %17, align 4, !tbaa !11
  br label %70

70:                                               ; preds = %92, %34
  %71 = load i32, ptr %17, align 4, !tbaa !11
  %72 = load i32, ptr %12, align 4, !tbaa !11
  %73 = icmp ult i32 %71, %72
  br i1 %73, label %74, label %95

74:                                               ; preds = %70
  %75 = load ptr, ptr %5, align 8, !tbaa !22
  %76 = getelementptr inbounds nuw %struct.H5HF_hdr_t, ptr %75, i32 0, i32 7
  %77 = getelementptr inbounds nuw %struct.H5HF_dtable_t, ptr %76, i32 0, i32 10
  %78 = load ptr, ptr %77, align 8, !tbaa !85
  %79 = load i32, ptr %17, align 4, !tbaa !11
  %80 = zext i32 %79 to i64
  %81 = getelementptr inbounds nuw i64, ptr %78, i64 %80
  %82 = load i64, ptr %81, align 8, !tbaa !25
  %83 = load ptr, ptr %5, align 8, !tbaa !22
  %84 = getelementptr inbounds nuw %struct.H5HF_hdr_t, ptr %83, i32 0, i32 7
  %85 = getelementptr inbounds nuw %struct.H5HF_dtable_t, ptr %84, i32 0, i32 0
  %86 = getelementptr inbounds nuw %struct.H5HF_dtable_cparam_t, ptr %85, i32 0, i32 0
  %87 = load i32, ptr %86, align 8, !tbaa !86
  %88 = zext i32 %87 to i64
  %89 = mul i64 %82, %88
  %90 = load i64, ptr %11, align 8, !tbaa !25
  %91 = add i64 %90, %89
  store i64 %91, ptr %11, align 8, !tbaa !25
  br label %92

92:                                               ; preds = %74
  %93 = load i32, ptr %17, align 4, !tbaa !11
  %94 = add i32 %93, 1
  store i32 %94, ptr %17, align 4, !tbaa !11
  br label %70, !llvm.loop !94

95:                                               ; preds = %70
  %96 = load ptr, ptr %5, align 8, !tbaa !22
  %97 = getelementptr inbounds nuw %struct.H5HF_hdr_t, ptr %96, i32 0, i32 7
  %98 = getelementptr inbounds nuw %struct.H5HF_dtable_t, ptr %97, i32 0, i32 10
  %99 = load ptr, ptr %98, align 8, !tbaa !85
  %100 = load i32, ptr %12, align 4, !tbaa !11
  %101 = zext i32 %100 to i64
  %102 = getelementptr inbounds nuw i64, ptr %99, i64 %101
  %103 = load i64, ptr %102, align 8, !tbaa !25
  %104 = load i32, ptr %13, align 4, !tbaa !11
  %105 = zext i32 %104 to i64
  %106 = mul i64 %103, %105
  %107 = load i64, ptr %11, align 8, !tbaa !25
  %108 = add i64 %107, %106
  store i64 %108, ptr %11, align 8, !tbaa !25
  %109 = load ptr, ptr %5, align 8, !tbaa !22
  %110 = load i64, ptr %11, align 8, !tbaa !25
  %111 = load ptr, ptr %6, align 8, !tbaa !66
  %112 = load ptr, ptr %6, align 8, !tbaa !66
  %113 = getelementptr inbounds nuw %struct.H5HF_indirect_t, ptr %112, i32 0, i32 14
  %114 = load i64, ptr %113, align 8, !tbaa !88
  %115 = load i32, ptr %12, align 4, !tbaa !11
  %116 = load i32, ptr %13, align 4, !tbaa !11
  %117 = load i32, ptr %8, align 4, !tbaa !11
  %118 = call ptr @H5HF__sect_indirect_new(ptr noundef %109, i64 noundef %110, i64 noundef 0, ptr noundef %111, i64 noundef %114, i32 noundef %115, i32 noundef %116, i32 noundef %117)
  store ptr %118, ptr %9, align 8, !tbaa !23
  %119 = icmp eq ptr null, %118
  br i1 %119, label %120, label %139

120:                                              ; preds = %95
  br label %121

121:                                              ; preds = %120
  br label %122

122:                                              ; preds = %121
  br label %123

123:                                              ; preds = %122
  %124 = load i64, ptr @H5E_HEAP_g, align 8, !tbaa !25
  %125 = load i64, ptr @H5E_CANTINIT_g, align 8, !tbaa !25
  %126 = call i32 (ptr, ptr, i32, i64, i64, ptr, ...) @H5E_printf_stack(ptr noundef @.str, ptr noundef @__func__.H5HF__sect_indirect_add, i32 noundef 2495, i64 noundef %124, i64 noundef %125, ptr noundef @.str.12)
  br label %127

127:                                              ; preds = %123
  br label %128

128:                                              ; preds = %127
  store i8 1, ptr %19, align 1, !tbaa !13
  %129 = load i8, ptr %19, align 1, !tbaa !13, !range !15, !noundef !16
  %130 = trunc i8 %129 to i1
  %131 = zext i1 %130 to i8
  store i8 %131, ptr %19, align 1, !tbaa !13
  br label %132

132:                                              ; preds = %128
  br label %133

133:                                              ; preds = %132
  br label %134

134:                                              ; preds = %133
  store i32 -1, ptr %18, align 4, !tbaa !11
  br label %192

135:                                              ; No predecessors!
  br label %136

136:                                              ; preds = %135
  br label %137

137:                                              ; preds = %136
  br label %138

138:                                              ; preds = %137
  br label %139

139:                                              ; preds = %138, %95
  %140 = load ptr, ptr %5, align 8, !tbaa !22
  %141 = load ptr, ptr %9, align 8, !tbaa !23
  %142 = load i32, ptr %12, align 4, !tbaa !11
  %143 = load i32, ptr %13, align 4, !tbaa !11
  %144 = load i32, ptr %15, align 4, !tbaa !11
  %145 = load i32, ptr %16, align 4, !tbaa !11
  %146 = call i32 @H5HF__sect_indirect_init_rows(ptr noundef %140, ptr noundef %141, i1 noundef zeroext true, ptr noundef %10, i32 noundef 4, i32 noundef %142, i32 noundef %143, i32 noundef %144, i32 noundef %145)
  %147 = icmp slt i32 %146, 0
  br i1 %147, label %148, label %167

148:                                              ; preds = %139
  br label %149

149:                                              ; preds = %148
  br label %150

150:                                              ; preds = %149
  br label %151

151:                                              ; preds = %150
  %152 = load i64, ptr @H5E_HEAP_g, align 8, !tbaa !25
  %153 = load i64, ptr @H5E_CANTINIT_g, align 8, !tbaa !25
  %154 = call i32 (ptr, ptr, i32, i64, i64, ptr, ...) @H5E_printf_stack(ptr noundef @.str, ptr noundef @__func__.H5HF__sect_indirect_add, i32 noundef 2500, i64 noundef %152, i64 noundef %153, ptr noundef @.str.13)
  br label %155

155:                                              ; preds = %151
  br label %156

156:                                              ; preds = %155
  store i8 1, ptr %19, align 1, !tbaa !13
  %157 = load i8, ptr %19, align 1, !tbaa !13, !range !15, !noundef !16
  %158 = trunc i8 %157 to i1
  %159 = zext i1 %158 to i8
  store i8 %159, ptr %19, align 1, !tbaa !13
  br label %160

160:                                              ; preds = %156
  br label %161

161:                                              ; preds = %160
  br label %162

162:                                              ; preds = %161
  store i32 -1, ptr %18, align 4, !tbaa !11
  br label %192

163:                                              ; No predecessors!
  br label %164

164:                                              ; preds = %163
  br label %165

165:                                              ; preds = %164
  br label %166

166:                                              ; preds = %165
  br label %167

167:                                              ; preds = %166, %139
  %168 = load ptr, ptr %5, align 8, !tbaa !22
  %169 = load ptr, ptr %10, align 8, !tbaa !23
  %170 = call i32 @H5HF__space_add(ptr noundef %168, ptr noundef %169, i32 noundef 2)
  %171 = icmp slt i32 %170, 0
  br i1 %171, label %172, label %191

172:                                              ; preds = %167
  br label %173

173:                                              ; preds = %172
  br label %174

174:                                              ; preds = %173
  br label %175

175:                                              ; preds = %174
  %176 = load i64, ptr @H5E_HEAP_g, align 8, !tbaa !25
  %177 = load i64, ptr @H5E_CANTINIT_g, align 8, !tbaa !25
  %178 = call i32 (ptr, ptr, i32, i64, i64, ptr, ...) @H5E_printf_stack(ptr noundef @.str, ptr noundef @__func__.H5HF__sect_indirect_add, i32 noundef 2507, i64 noundef %176, i64 noundef %177, ptr noundef @.str.14)
  br label %179

179:                                              ; preds = %175
  br label %180

180:                                              ; preds = %179
  store i8 1, ptr %19, align 1, !tbaa !13
  %181 = load i8, ptr %19, align 1, !tbaa !13, !range !15, !noundef !16
  %182 = trunc i8 %181 to i1
  %183 = zext i1 %182 to i8
  store i8 %183, ptr %19, align 1, !tbaa !13
  br label %184

184:                                              ; preds = %180
  br label %185

185:                                              ; preds = %184
  br label %186

186:                                              ; preds = %185
  store i32 -1, ptr %18, align 4, !tbaa !11
  br label %192

187:                                              ; No predecessors!
  br label %188

188:                                              ; preds = %187
  br label %189

189:                                              ; preds = %188
  br label %190

190:                                              ; preds = %189
  br label %191

191:                                              ; preds = %190, %167
  br label %192

192:                                              ; preds = %191, %186, %162, %134
  %193 = load i32, ptr %18, align 4, !tbaa !11
  %194 = icmp slt i32 %193, 0
  br i1 %194, label %195, label %219

195:                                              ; preds = %192
  %196 = load ptr, ptr %9, align 8, !tbaa !23
  %197 = icmp ne ptr %196, null
  br i1 %197, label %198, label %219

198:                                              ; preds = %195
  %199 = load ptr, ptr %9, align 8, !tbaa !23
  %200 = call i32 @H5HF__sect_indirect_free(ptr noundef %199)
  %201 = icmp slt i32 %200, 0
  br i1 %201, label %202, label %218

202:                                              ; preds = %198
  br label %203

203:                                              ; preds = %202
  br label %204

204:                                              ; preds = %203
  br label %205

205:                                              ; preds = %204
  %206 = load i64, ptr @H5E_HEAP_g, align 8, !tbaa !25
  %207 = load i64, ptr @H5E_CANTRELEASE_g, align 8, !tbaa !25
  %208 = call i32 (ptr, ptr, i32, i64, i64, ptr, ...) @H5E_printf_stack(ptr noundef @.str, ptr noundef @__func__.H5HF__sect_indirect_add, i32 noundef 2512, i64 noundef %206, i64 noundef %207, ptr noundef @.str.15)
  br label %209

209:                                              ; preds = %205
  br label %210

210:                                              ; preds = %209
  store i8 1, ptr %19, align 1, !tbaa !13
  %211 = load i8, ptr %19, align 1, !tbaa !13, !range !15, !noundef !16
  %212 = trunc i8 %211 to i1
  %213 = zext i1 %212 to i8
  store i8 %213, ptr %19, align 1, !tbaa !13
  br label %214

214:                                              ; preds = %210
  br label %215

215:                                              ; preds = %214
  store i32 -1, ptr %18, align 4, !tbaa !11
  br label %216

216:                                              ; preds = %215
  br label %217

217:                                              ; preds = %216
  br label %218

218:                                              ; preds = %217, %198
  br label %219

219:                                              ; preds = %218, %195, %192
  br label %220

220:                                              ; preds = %219, %26
  %221 = load i32, ptr %18, align 4, !tbaa !11
  call void @llvm.lifetime.end.p0(i64 1, ptr %19) #7
  call void @llvm.lifetime.end.p0(i64 4, ptr %18) #7
  call void @llvm.lifetime.end.p0(i64 4, ptr %17) #7
  call void @llvm.lifetime.end.p0(i64 4, ptr %16) #7
  call void @llvm.lifetime.end.p0(i64 4, ptr %15) #7
  call void @llvm.lifetime.end.p0(i64 4, ptr %14) #7
  call void @llvm.lifetime.end.p0(i64 4, ptr %13) #7
  call void @llvm.lifetime.end.p0(i64 4, ptr %12) #7
  call void @llvm.lifetime.end.p0(i64 8, ptr %11) #7
  call void @llvm.lifetime.end.p0(i64 8, ptr %10) #7
  call void @llvm.lifetime.end.p0(i64 8, ptr %9) #7
  ret i32 %221
}