; Function Attrs: nounwind uwtable
define range(i32 -1, 1) i32 @H5HF__sect_indirect_add(ptr noundef %0, ptr noundef %1, i32 noundef %2, i32 noundef %3) local_unnamed_addr #0 {
  %5 = alloca ptr, align 8
  call void @llvm.lifetime.start.p0(i64 8, ptr nonnull %5) #13
  store ptr null, ptr %5, align 8, !tbaa !16
  %6 = load i8, ptr @H5HF_init_g, align 1, !tbaa !3, !range !7, !noundef !8
  %7 = trunc nuw i8 %6 to i1
  %8 = load i8, ptr @H5_libterm_g, align 1, !range !7
  %9 = trunc nuw i8 %8 to i1
  %10 = xor i1 %9, true
  %11 = select i1 %7, i1 true, i1 %10
  br i1 %11, label %12, label %.thread, !prof !9

12:                                               ; preds = %4
  %13 = getelementptr inbounds nuw i8, ptr %0, i64 264
  %14 = load i32, ptr %13, align 8, !tbaa !57
  %15 = udiv i32 %2, %14
  %16 = urem i32 %2, %14
  %17 = add i32 %2, -1
  %18 = add i32 %17, %3
  %19 = udiv i32 %18, %14
  %20 = urem i32 %18, %14
  %21 = getelementptr inbounds nuw i8, ptr %1, i64 336
  %22 = load i64, ptr %21, align 8, !tbaa !64
  %.not = icmp ugt i32 %14, %2
  %.phi.trans.insert = getelementptr inbounds nuw i8, ptr %0, i64 344
  %.pre = load ptr, ptr %.phi.trans.insert, align 8, !tbaa !56
  br i1 %.not, label %.._crit_edge_crit_edge, label %.lr.ph

.._crit_edge_crit_edge:                           ; preds = %12
  %.pre54 = zext i32 %15 to i64
  br label %._crit_edge

.lr.ph:                                           ; preds = %12
  %23 = zext i32 %14 to i64
  %24 = zext i32 %15 to i64
  br label %25

25:                                               ; preds = %.lr.ph, %25
  %indvars.iv = phi i64 [ 0, %.lr.ph ], [ %indvars.iv.next, %25 ]
  %.04551 = phi i64 [ %22, %.lr.ph ], [ %29, %25 ]
  %26 = getelementptr inbounds nuw i64, ptr %.pre, i64 %indvars.iv
  %27 = load i64, ptr %26, align 8, !tbaa !18
  %28 = mul i64 %27, %23
  %29 = add i64 %28, %.04551
  %indvars.iv.next = add nuw nsw i64 %indvars.iv, 1
  %30 = icmp samesign ult i64 %indvars.iv.next, %24
  br i1 %30, label %25, label %._crit_edge, !llvm.loop !81

._crit_edge:                                      ; preds = %25, %.._crit_edge_crit_edge
  %.pre-phi = phi i64 [ %.pre54, %.._crit_edge_crit_edge ], [ %24, %25 ]
  %.045.lcssa = phi i64 [ %22, %.._crit_edge_crit_edge ], [ %29, %25 ]
  %31 = getelementptr inbounds nuw i64, ptr %.pre, i64 %.pre-phi
  %32 = load i64, ptr %31, align 8, !tbaa !18
  %33 = zext i32 %16 to i64
  %34 = mul i64 %32, %33
  %35 = add i64 %34, %.045.lcssa
  %36 = tail call fastcc ptr @H5HF__sect_indirect_new(ptr noundef nonnull %0, i64 noundef %35, i64 noundef 0, ptr noundef %1, i64 noundef %22, i32 noundef %15, i32 noundef %16, i32 noundef %3)
  %37 = icmp eq ptr %36, null
  br i1 %37, label %38, label %42

38:                                               ; preds = %._crit_edge
  %39 = load i64, ptr @H5E_HEAP_g, align 8, !tbaa !18
  %40 = load i64, ptr @H5E_CANTINIT_g, align 8, !tbaa !18
  %41 = tail call i32 (ptr, ptr, i32, i64, i64, ptr, ...) @H5E_printf_stack(ptr noundef nonnull @.str, ptr noundef nonnull @__func__.H5HF__sect_indirect_add, i32 noundef 2495, i64 noundef %39, i64 noundef %40, ptr noundef nonnull @.str.12) #13
  br label %.thread

42:                                               ; preds = %._crit_edge
  %43 = call fastcc i32 @H5HF__sect_indirect_init_rows(ptr noundef nonnull %0, ptr noundef %36, i1 noundef zeroext true, ptr noundef nonnull %5, i32 noundef 4, i32 noundef %15, i32 noundef %16, i32 noundef %19, i32 noundef %20)
  %44 = icmp slt i32 %43, 0
  br i1 %44, label %45, label %49

45:                                               ; preds = %42
  %46 = load i64, ptr @H5E_HEAP_g, align 8, !tbaa !18
  %47 = load i64, ptr @H5E_CANTINIT_g, align 8, !tbaa !18
  %48 = call i32 (ptr, ptr, i32, i64, i64, ptr, ...) @H5E_printf_stack(ptr noundef nonnull @.str, ptr noundef nonnull @__func__.H5HF__sect_indirect_add, i32 noundef 2500, i64 noundef %46, i64 noundef %47, ptr noundef nonnull @.str.13) #13
  br label %57

49:                                               ; preds = %42
  %50 = load ptr, ptr %5, align 8, !tbaa !16
  %51 = call i32 @H5HF__space_add(ptr noundef nonnull %0, ptr noundef %50, i32 noundef 2) #13
  %52 = icmp slt i32 %51, 0
  br i1 %52, label %53, label %.thread

53:                                               ; preds = %49
  %54 = load i64, ptr @H5E_HEAP_g, align 8, !tbaa !18
  %55 = load i64, ptr @H5E_CANTINIT_g, align 8, !tbaa !18
  %56 = call i32 (ptr, ptr, i32, i64, i64, ptr, ...) @H5E_printf_stack(ptr noundef nonnull @.str, ptr noundef nonnull @__func__.H5HF__sect_indirect_add, i32 noundef 2507, i64 noundef %54, i64 noundef %55, ptr noundef nonnull @.str.14) #13
  br label %57

57:                                               ; preds = %45, %53
  %58 = call fastcc i32 @H5HF__sect_indirect_free(ptr noundef nonnull %36)
  %59 = icmp slt i32 %58, 0
  br i1 %59, label %60, label %.thread

60:                                               ; preds = %57
  %61 = load i64, ptr @H5E_HEAP_g, align 8, !tbaa !18
  %62 = load i64, ptr @H5E_CANTRELEASE_g, align 8, !tbaa !18
  %63 = call i32 (ptr, ptr, i32, i64, i64, ptr, ...) @H5E_printf_stack(ptr noundef nonnull @.str, ptr noundef nonnull @__func__.H5HF__sect_indirect_add, i32 noundef 2512, i64 noundef %61, i64 noundef %62, ptr noundef nonnull @.str.15) #13
  br label %.thread

.thread:                                          ; preds = %38, %49, %60, %57, %4
  %.0 = phi i32 [ -1, %60 ], [ -1, %57 ], [ 0, %4 ], [ 0, %49 ], [ -1, %38 ]
  call void @llvm.lifetime.end.p0(i64 8, ptr nonnull %5) #13
  ret i32 %.0
}